target datalayout = "e-m:e-p270:32:32-p271:32:32-p272:64:64-i64:64-i128:128-f80:128-n8:16:32:64-S128"
target triple = "x86_64-pc-linux-gnu"

%struct.JsonUniqueHashEntry = type { ptr, i32, i32 }
%struct.JsonUniqueParsingState = type { ptr, ptr, ptr, i32, i8 }
%struct.JsonUniqueStackEntry = type { ptr, i32 }

; Function Attrs: nounwind uwtable
define internal zeroext i1 @json_unique_check_key(ptr noundef %0, ptr noundef %1, i32 noundef %2) #0 {
  %4 = alloca ptr, align 8
  %5 = alloca ptr, align 8
  %6 = alloca i32, align 4
  %7 = alloca %struct.JsonUniqueHashEntry, align 8
  %8 = alloca i8, align 1
  store ptr %0, ptr %4, align 8
  store ptr %1, ptr %5, align 8
  store i32 %2, ptr %6, align 4
  call void @llvm.lifetime.start.p0(i64 16, ptr %7) #14
  call void @llvm.lifetime.start.p0(i64 1, ptr %8) #14
  %9 = load ptr, ptr %5, align 8
  %10 = getelementptr inbounds nuw %struct.JsonUniqueHashEntry, ptr %7, i32 0, i32 0
  store ptr %9, ptr %10, align 8
  %11 = load ptr, ptr %5, align 8
  %12 = call i64 @strlen(ptr noundef %11) #16
  %13 = trunc i64 %12 to i32
  %14 = getelementptr inbounds nuw %struct.JsonUniqueHashEntry, ptr %7, i32 0, i32 1
  store i32 %13, ptr %14, align 8
  %15 = load i32, ptr %6, align 4
  %16 = getelementptr inbounds nuw %struct.JsonUniqueHashEntry, ptr %7, i32 0, i32 2
  store i32 %15, ptr %16, align 4
  %17 = load ptr, ptr %4, align 8
  %18 = load ptr, ptr %17, align 8
  %19 = call ptr @hash_search(ptr noundef %18, ptr noundef %7, i32 noundef 1, ptr noundef %8)
  %20 = load i8, ptr %8, align 1, !range !4, !noundef !5
  %21 = trunc i8 %20 to i1
  %22 = xor i1 %21, true
  call void @llvm.lifetime.end.p0(i64 1, ptr %8) #14
  call void @llvm.lifetime.end.p0(i64 16, ptr %7) #14
  ret i1 %22
}

; Function Attrs: nounwind uwtable
define internal i32 @json_unique_object_field_start(ptr noundef %0, ptr noundef %1, i1 noundef zeroext %2) #0 {
  %4 = alloca i32, align 4
  %5 = alloca ptr, align 8
  %6 = alloca ptr, align 8
  %7 = alloca i8, align 1
  %8 = alloca ptr, align 8
  %9 = alloca ptr, align 8
  %10 = alloca i32, align 4
  store ptr %0, ptr %5, align 8
  store ptr %1, ptr %6, align 8
  %11 = zext i1 %2 to i8
  store i8 %11, ptr %7, align 1
  call void @llvm.lifetime.start.p0(i64 8, ptr %8) #14
  %12 = load ptr, ptr %5, align 8
  store ptr %12, ptr %8, align 8
  call void @llvm.lifetime.start.p0(i64 8, ptr %9) #14
  %13 = load ptr, ptr %8, align 8
  %14 = getelementptr inbounds nuw %struct.JsonUniqueParsingState, ptr %13, i32 0, i32 4
  %15 = load i8, ptr %14, align 4, !range !4, !noundef !5
  %16 = trunc i8 %15 to i1
  br i1 %16, label %18, label %17

17:                                               ; preds = %3
  store i32 0, ptr %4, align 4
  store i32 1, ptr %10, align 4
  br label %45

18:                                               ; preds = %3
  %19 = load ptr, ptr %8, align 8
  %20 = getelementptr inbounds nuw %struct.JsonUniqueParsingState, ptr %19, i32 0, i32 1
  %21 = load ptr, ptr %6, align 8
  %22 = load ptr, ptr %8, align 8
  %23 = getelementptr inbounds nuw %struct.JsonUniqueParsingState, ptr %22, i32 0, i32 2
  %24 = load ptr, ptr %23, align 8
  %25 = getelementptr inbounds nuw %struct.JsonUniqueStackEntry, ptr %24, i32 0, i32 1
  %26 = load i32, ptr %25, align 8
  %27 = call zeroext i1 @json_unique_check_key(ptr noundef %20, ptr noundef %21, i32 noundef %26)
  br i1 %27, label %28, label %29

28:                                               ; preds = %18
  store i32 0, ptr %4, align 4
  store i32 1, ptr %10, align 4
  br label %45

29:                                               ; preds = %18
  %30 = load ptr, ptr %8, align 8
  %31 = getelementptr inbounds nuw %struct.JsonUniqueParsingState, ptr %30, i32 0, i32 4
  store i8 0, ptr %31, align 4
  br label %32

32:                                               ; preds = %37, %29
  %33 = load ptr, ptr %8, align 8
  %34 = getelementptr inbounds nuw %struct.JsonUniqueParsingState, ptr %33, i32 0, i32 2
  %35 = load ptr, ptr %34, align 8
  store ptr %35, ptr %9, align 8
  %36 = icmp ne ptr %35, null
  br i1 %36, label %37, label %44

37:                                               ; preds = %32
  %38 = load ptr, ptr %9, align 8
  %39 = getelementptr inbounds nuw %struct.JsonUniqueStackEntry, ptr %38, i32 0, i32 0
  %40 = load ptr, ptr %39, align 8
  %41 = load ptr, ptr %8, align 8
  %42 = getelementptr inbounds nuw %struct.JsonUniqueParsingState, ptr %41, i32 0, i32 2
  store ptr %40, ptr %42, align 8
  %43 = load ptr, ptr %9, align 8
  call void @pfree(ptr noundef %43)
  br label %32, !llvm.loop !15

44:                                               ; preds = %32
  store i32 0, ptr %4, align 4
  store i32 1, ptr %10, align 4
  br label %45

45:                                               ; preds = %44, %28, %17
  call void @llvm.lifetime.end.p0(i64 8, ptr %9) #14
  call void @llvm.lifetime.end.p0(i64 8, ptr %8) #14
  %46 = load i32, ptr %4, align 4
  ret i32 %46
}