; Function Attrs: nounwind uwtable
define internal noundef i32 @json_unique_object_field_start(ptr noundef captures(none) %0, ptr noundef %1, i1 zeroext %2) #0 {
  %4 = alloca %struct.JsonUniqueHashEntry, align 8
  %5 = alloca i8, align 1
  %6 = getelementptr inbounds nuw i8, ptr %0, i64 28
  %7 = load i8, ptr %6, align 4, !range !4, !noundef !5
  %8 = trunc nuw i8 %7 to i1
  br i1 %8, label %9, label %.loopexit

9:                                                ; preds = %3
  %10 = getelementptr inbounds nuw i8, ptr %0, i64 8
  %11 = getelementptr inbounds nuw i8, ptr %0, i64 16
  %12 = load ptr, ptr %11, align 8
  %13 = getelementptr inbounds nuw i8, ptr %12, i64 8
  %14 = load i32, ptr %13, align 8
  %.val = load ptr, ptr %10, align 8
  call void @llvm.lifetime.start.p0(i64 16, ptr nonnull %4) #10
  call void @llvm.lifetime.start.p0(i64 1, ptr nonnull %5) #10
  store ptr %1, ptr %4, align 8
  %15 = tail call i64 @strlen(ptr noundef nonnull dereferenceable(1) %1) #12
  %16 = trunc i64 %15 to i32
  %17 = getelementptr inbounds nuw i8, ptr %4, i64 8
  store i32 %16, ptr %17, align 8
  %18 = getelementptr inbounds nuw i8, ptr %4, i64 12
  store i32 %14, ptr %18, align 4
  %19 = call ptr @hash_search(ptr noundef %.val, ptr noundef nonnull %4, i32 noundef 1, ptr noundef nonnull %5) #10
  %20 = load i8, ptr %5, align 1, !range !4, !noundef !5
  %21 = trunc nuw i8 %20 to i1
  call void @llvm.lifetime.end.p0(i64 1, ptr nonnull %5) #10
  call void @llvm.lifetime.end.p0(i64 16, ptr nonnull %4) #10
  br i1 %21, label %22, label %.loopexit

22:                                               ; preds = %9
  store i8 0, ptr %6, align 4
  %23 = load ptr, ptr %11, align 8
  %.not10 = icmp eq ptr %23, null
  br i1 %.not10, label %.loopexit, label %.lr.ph

.lr.ph:                                           ; preds = %22, %.lr.ph
  %24 = phi ptr [ %26, %.lr.ph ], [ %23, %22 ]
  %25 = load ptr, ptr %24, align 8
  store ptr %25, ptr %11, align 8
  call void @pfree(ptr noundef nonnull %24) #10
  %26 = load ptr, ptr %11, align 8
  %.not = icmp eq ptr %26, null
  br i1 %.not, label %.loopexit, label %.lr.ph, !llvm.loop !15

.loopexit:                                        ; preds = %.lr.ph, %22, %9, %3
  ret i32 0
}